#include <math.h>
#include <stdio.h>
#include <stdlib.h>
#include <string.h>

int main()
{
	int n,i,j=0,k=0,a[300],b[300];
	scanf("%d",&n);
	for(i=0;i<n;i++)
	{         
	 scanf("%d",&a[i]);
	}
	for(i=0;i<n;i++)
	{
		for(j=0;j<i;j++)
		{
		if(a[j]==a[i])
         break;
		}
		if(j==i)
                    {
                    b[k]=a[i] ;   
                    k=k+1;
                     }
                 
	}
for	(i=0;i<k;i++)
{
printf("%d",b[i]);
if(i<k-1)
printf(",");
}
	return 0;
}
