; ModuleID = 'source-C-CXX/52/1678.c'
source_filename = "source-C-CXX/52/1678.c"
target datalayout = "e-m:e-p270:32:32-p271:32:32-p272:64:64-i64:64-f80:128-n8:16:32:64-S128"
target triple = "x86_64-pc-linux-gnu"

@.str = private unnamed_addr constant [3 x i8] c"%d\00", align 1

; Function Attrs: nofree nounwind sspstrong uwtable
define dso_local i32 @main() local_unnamed_addr #0 {
  %1 = alloca i32, align 4
  %2 = alloca [300 x i32], align 16
  %3 = alloca [300 x i32], align 16
  %4 = bitcast i32* %1 to i8*
  call void @llvm.lifetime.start.p0i8(i64 4, i8* nonnull %4) #4
  %5 = bitcast [300 x i32]* %2 to i8*
  call void @llvm.lifetime.start.p0i8(i64 1200, i8* nonnull %5) #4
  %6 = bitcast [300 x i32]* %3 to i8*
  call void @llvm.lifetime.start.p0i8(i64 1200, i8* nonnull %6) #4
  %7 = call i32 (i8*, ...) @__isoc99_scanf(i8* getelementptr inbounds ([3 x i8], [3 x i8]* @.str, i64 0, i64 0), i32* nonnull %1)
  %8 = load i32, i32* %1, align 4, !tbaa !5
  %9 = icmp sgt i32 %8, 0
  br i1 %9, label %14, label %68

10:                                               ; preds = %14
  %11 = icmp sgt i32 %19, 0
  br i1 %11, label %12, label %68

12:                                               ; preds = %10
  %13 = zext i32 %19 to i64
  br label %22

14:                                               ; preds = %0, %14
  %15 = phi i64 [ %18, %14 ], [ 0, %0 ]
  %16 = getelementptr inbounds [300 x i32], [300 x i32]* %2, i64 0, i64 %15
  %17 = call i32 (i8*, ...) @__isoc99_scanf(i8* getelementptr inbounds ([3 x i8], [3 x i8]* @.str, i64 0, i64 0), i32* nonnull %16)
  %18 = add nuw nsw i64 %15, 1
  %19 = load i32, i32* %1, align 4, !tbaa !5
  %20 = sext i32 %19 to i64
  %21 = icmp slt i64 %18, %20
  br i1 %21, label %14, label %10, !llvm.loop !9

22:                                               ; preds = %12, %53
  %23 = phi i64 [ 0, %12 ], [ %55, %53 ]
  %24 = phi i32 [ 0, %12 ], [ %54, %53 ]
  %25 = icmp eq i64 %23, 0
  br i1 %25, label %43, label %26

26:                                               ; preds = %22
  %27 = getelementptr inbounds [300 x i32], [300 x i32]* %2, i64 0, i64 %23
  %28 = load i32, i32* %27, align 4, !tbaa !5
  br label %35

29:                                               ; preds = %53
  %30 = icmp sgt i32 %54, 0
  br i1 %30, label %31, label %68

31:                                               ; preds = %29
  %32 = add nsw i32 %54, -1
  %33 = zext i32 %32 to i64
  %34 = zext i32 %54 to i64
  br label %57

35:                                               ; preds = %26, %40
  %36 = phi i64 [ 0, %26 ], [ %41, %40 ]
  %37 = getelementptr inbounds [300 x i32], [300 x i32]* %2, i64 0, i64 %36
  %38 = load i32, i32* %37, align 4, !tbaa !5
  %39 = icmp eq i32 %38, %28
  br i1 %39, label %43, label %40

40:                                               ; preds = %35
  %41 = add nuw nsw i64 %36, 1
  %42 = icmp eq i64 %41, %23
  br i1 %42, label %43, label %35, !llvm.loop !11

43:                                               ; preds = %40, %35, %22
  %44 = phi i64 [ 0, %22 ], [ %36, %35 ], [ %23, %40 ]
  %45 = and i64 %44, 4294967295
  %46 = icmp eq i64 %45, %23
  br i1 %46, label %47, label %53

47:                                               ; preds = %43
  %48 = getelementptr inbounds [300 x i32], [300 x i32]* %2, i64 0, i64 %23
  %49 = load i32, i32* %48, align 4, !tbaa !5
  %50 = sext i32 %24 to i64
  %51 = getelementptr inbounds [300 x i32], [300 x i32]* %3, i64 0, i64 %50
  store i32 %49, i32* %51, align 4, !tbaa !5
  %52 = add nsw i32 %24, 1
  br label %53

53:                                               ; preds = %43, %47
  %54 = phi i32 [ %52, %47 ], [ %24, %43 ]
  %55 = add nuw nsw i64 %23, 1
  %56 = icmp eq i64 %55, %13
  br i1 %56, label %29, label %22, !llvm.loop !12

57:                                               ; preds = %31, %65
  %58 = phi i64 [ 0, %31 ], [ %66, %65 ]
  %59 = getelementptr inbounds [300 x i32], [300 x i32]* %3, i64 0, i64 %58
  %60 = load i32, i32* %59, align 4, !tbaa !5
  %61 = call i32 (i8*, ...) @printf(i8* nonnull dereferenceable(1) getelementptr inbounds ([3 x i8], [3 x i8]* @.str, i64 0, i64 0), i32 %60)
  %62 = icmp ult i64 %58, %33
  br i1 %62, label %63, label %65

63:                                               ; preds = %57
  %64 = call i32 @putchar(i32 44)
  br label %65

65:                                               ; preds = %57, %63
  %66 = add nuw nsw i64 %58, 1
  %67 = icmp eq i64 %66, %34
  br i1 %67, label %68, label %57, !llvm.loop !13

68:                                               ; preds = %65, %0, %10, %29
  call void @llvm.lifetime.end.p0i8(i64 1200, i8* nonnull %6) #4
  call void @llvm.lifetime.end.p0i8(i64 1200, i8* nonnull %5) #4
  call void @llvm.lifetime.end.p0i8(i64 4, i8* nonnull %4) #4
  ret i32 0
}

; Function Attrs: argmemonly mustprogress nofree nosync nounwind willreturn
declare void @llvm.lifetime.start.p0i8(i64 immarg, i8* nocapture) #1

; Function Attrs: nofree nounwind
declare noundef i32 @__isoc99_scanf(i8* nocapture noundef readonly, ...) local_unnamed_addr #2

; Function Attrs: nofree nounwind
declare noundef i32 @printf(i8* nocapture noundef readonly, ...) local_unnamed_addr #2

; Function Attrs: argmemonly mustprogress nofree nosync nounwind willreturn
declare void @llvm.lifetime.end.p0i8(i64 immarg, i8* nocapture) #1

; Function Attrs: nofree nounwind
declare noundef i32 @putchar(i32 noundef) local_unnamed_addr #3


!llvm.module.flags = !{!0, !1, !2, !3}
!llvm.ident = !{!4}

!0 = !{i32 1, !"wchar_size", i32 4}
!1 = !{i32 7, !"PIC Level", i32 2}
!2 = !{i32 7, !"PIE Level", i32 2}
!3 = !{i32 7, !"uwtable", i32 1}
!4 = !{!"clang version 13.0.0"}
!5 = !{!6, !6, i64 0}
!6 = !{!"int", !7, i64 0}
!7 = !{!"omnipotent char", !8, i64 0}
!8 = !{!"Simple C/C++ TBAA"}
!9 = distinct !{!9, !10}
!10 = !{!"llvm.loop.mustprogress"}
!11 = distinct !{!11, !10}
!12 = distinct !{!12, !10}
!13 = distinct !{!13, !10}
